target datalayout = "e-m:e-p270:32:32-p271:32:32-p272:64:64-i64:64-i128:128-f80:128-n8:16:32:64-S128"
target triple = "x86_64-pc-linux-gnu"

@ff_png_pass_ymask = constant [7 x i8] c"\80\80\08\88\22\AAU", align 1
@ff_png_pass_xmin = internal constant [7 x i8] c"\00\04\00\02\00\01\00", align 1
@ff_png_pass_xshift = internal constant [7 x i8] c"\03\03\02\02\01\01\00", align 1

; Function Attrs: nounwind uwtable
define i32 @ff_png_get_nb_channels(i32 noundef %0) #0 {
  %2 = alloca i32, align 4
  %3 = alloca i32, align 4
  store i32 %0, ptr %2, align 4, !tbaa !4
  call void @llvm.lifetime.start.p0(i64 4, ptr %3) #2
  store i32 1, ptr %3, align 4, !tbaa !4
  %4 = load i32, ptr %2, align 4, !tbaa !4
  %5 = and i32 %4, 3
  %6 = icmp eq i32 %5, 2
  br i1 %6, label %7, label %8

7:                                                ; preds = %1
  store i32 3, ptr %3, align 4, !tbaa !4
  br label %8

8:                                                ; preds = %7, %1
  %9 = load i32, ptr %2, align 4, !tbaa !4
  %10 = and i32 %9, 4
  %11 = icmp ne i32 %10, 0
  br i1 %11, label %12, label %15

12:                                               ; preds = %8
  %13 = load i32, ptr %3, align 4, !tbaa !4
  %14 = add nsw i32 %13, 1
  store i32 %14, ptr %3, align 4, !tbaa !4
  br label %15

15:                                               ; preds = %12, %8
  %16 = load i32, ptr %3, align 4, !tbaa !4
  call void @llvm.lifetime.end.p0(i64 4, ptr %3) #2
  ret i32 %16
}

; Function Attrs: nocallback nofree nosync nounwind willreturn memory(argmem: readwrite)
declare void @llvm.lifetime.start.p0(i64 immarg, ptr captures(none)) #1

; Function Attrs: nocallback nofree nosync nounwind willreturn memory(argmem: readwrite)
declare void @llvm.lifetime.end.p0(i64 immarg, ptr captures(none)) #1

; Function Attrs: nounwind uwtable
define i32 @ff_png_pass_row_size(i32 noundef %0, i32 noundef %1, i32 noundef %2) #0 {
  %4 = alloca i32, align 4
  %5 = alloca i32, align 4
  %6 = alloca i32, align 4
  %7 = alloca i32, align 4
  %8 = alloca i32, align 4
  %9 = alloca i32, align 4
  %10 = alloca i32, align 4
  %11 = alloca i32, align 4
  store i32 %0, ptr %5, align 4, !tbaa !4
  store i32 %1, ptr %6, align 4, !tbaa !4
  store i32 %2, ptr %7, align 4, !tbaa !4
  call void @llvm.lifetime.start.p0(i64 4, ptr %8) #2
  call void @llvm.lifetime.start.p0(i64 4, ptr %9) #2
  call void @llvm.lifetime.start.p0(i64 4, ptr %10) #2
  %12 = load i32, ptr %5, align 4, !tbaa !4
  %13 = sext i32 %12 to i64
  %14 = getelementptr inbounds [7 x i8], ptr @ff_png_pass_xmin, i64 0, i64 %13
  %15 = load i8, ptr %14, align 1, !tbaa !8
  %16 = zext i8 %15 to i32
  store i32 %16, ptr %9, align 4, !tbaa !4
  %17 = load i32, ptr %7, align 4, !tbaa !4
  %18 = load i32, ptr %9, align 4, !tbaa !4
  %19 = icmp sle i32 %17, %18
  br i1 %19, label %20, label %21

20:                                               ; preds = %3
  store i32 0, ptr %4, align 4
  store i32 1, ptr %11, align 4
  br label %41

21:                                               ; preds = %3
  %22 = load i32, ptr %5, align 4, !tbaa !4
  %23 = sext i32 %22 to i64
  %24 = getelementptr inbounds [7 x i8], ptr @ff_png_pass_xshift, i64 0, i64 %23
  %25 = load i8, ptr %24, align 1, !tbaa !8
  %26 = zext i8 %25 to i32
  store i32 %26, ptr %8, align 4, !tbaa !4
  %27 = load i32, ptr %7, align 4, !tbaa !4
  %28 = load i32, ptr %9, align 4, !tbaa !4
  %29 = sub nsw i32 %27, %28
  %30 = load i32, ptr %8, align 4, !tbaa !4
  %31 = shl i32 1, %30
  %32 = add nsw i32 %29, %31
  %33 = sub nsw i32 %32, 1
  %34 = load i32, ptr %8, align 4, !tbaa !4
  %35 = ashr i32 %33, %34
  store i32 %35, ptr %10, align 4, !tbaa !4
  %36 = load i32, ptr %10, align 4, !tbaa !4
  %37 = load i32, ptr %6, align 4, !tbaa !4
  %38 = mul nsw i32 %36, %37
  %39 = add nsw i32 %38, 7
  %40 = ashr i32 %39, 3
  store i32 %40, ptr %4, align 4
  store i32 1, ptr %11, align 4
  br label %41

41:                                               ; preds = %21, %20
  call void @llvm.lifetime.end.p0(i64 4, ptr %10) #2
  call void @llvm.lifetime.end.p0(i64 4, ptr %9) #2
  call void @llvm.lifetime.end.p0(i64 4, ptr %8) #2
  %42 = load i32, ptr %4, align 4
  ret i32 %42
}


!llvm.module.flags = !{!0, !1, !2, !3}

!0 = !{i32 1, !"wchar_size", i32 4}
!1 = !{i32 8, !"PIC Level", i32 2}
!2 = !{i32 7, !"uwtable", i32 2}
!3 = !{i32 1, !"override-stack-alignment", i32 16}
!4 = !{!5, !5, i64 0}
!5 = !{!"int", !6, i64 0}
!6 = !{!"omnipotent char", !7, i64 0}
!7 = !{!"Simple C/C++ TBAA"}
!8 = !{!6, !6, i64 0}
